Certificate:
    Data:
        Version: 3 (0x2)
        Serial Number: 4096 (0x1000)
        Signature Algorithm: sha256WithRSAEncryption
        Issuer: C=US, ST=Georgia, L=Atlanta, O=Student PKI Lab, OU=Cybersecurity, CN=Eric Sledge Root CA
        Validity
            Not Before: Apr 26 21:51:33 2026 GMT
            Not After : Apr 26 21:51:33 2027 GMT
        Subject: C=US, ST=Georgia, O=Student PKI Lab, OU=Cybersecurity, CN=PKILabServer.com
        Subject Public Key Info:
            Public Key Algorithm: rsaEncryption
                Public-Key: (2048 bit)
                Modulus:
                    00:90:d9:b3:d9:e5:18:a8:98:28:fe:64:c2:9f:3e:
                    f0:d0:40:ed:7d:7a:d4:69:78:e8:f5:d6:0b:54:68:
                    7b:21:cb:cd:0a:f0:47:ef:ab:05:6e:2c:49:35:f4:
                    42:ee:1b:13:61:a9:45:c3:2a:5e:93:27:2b:64:92:
                    7b:75:69:8f:36:e6:97:c9:f8:c5:a0:40:99:9e:f3:
                    d9:a2:aa:6a:2d:d7:66:9d:e0:bc:03:f3:be:38:52:
                    e7:d6:bb:7e:b0:90:17:36:2c:9f:21:d7:fc:d3:83:
                    ee:96:32:76:2e:e8:17:0b:ed:b8:bf:5e:eb:a1:24:
                    8a:53:d7:45:54:b4:55:f5:fd:33:c8:4e:21:fc:99:
                    ef:2f:38:44:5f:bd:d3:80:52:e7:86:fc:11:1f:e2:
                    43:7d:ab:21:cd:c1:b5:0a:9a:ed:86:43:f5:f7:be:
                    5f:09:ef:15:5f:33:e4:b1:3f:89:34:77:f5:ce:23:
                    40:51:7d:6a:b9:43:8b:d7:be:2f:90:ec:f2:23:d7:
                    5d:9a:b3:ac:fb:a3:70:a7:36:85:c0:61:f5:e8:ce:
                    ab:d8:01:79:02:3a:3c:e3:06:7b:cb:d8:de:f0:e2:
                    85:64:38:f3:b1:7a:c2:08:49:ee:75:bf:1c:f4:04:
                    91:db:df:f4:eb:f3:fd:f0:3b:49:cd:ed:01:69:23:
                    56:5d
                Exponent: 65537 (0x10001)
        X509v3 extensions:
            X509v3 Basic Constraints: 
                CA:FALSE
            X509v3 Subject Key Identifier: 
                C9:8E:DA:24:B4:C2:23:5A:36:A9:6B:B0:D2:F1:BC:10:1B:17:32:6C
            X509v3 Authority Key Identifier: 
                9D:FC:66:8D:40:24:8F:87:87:BE:00:56:37:85:D2:5C:82:EB:D8:8A
    Signature Algorithm: sha256WithRSAEncryption
    Signature Value:
        1c:71:05:a1:a5:cc:5b:d3:18:a3:f8:5b:43:5f:1f:1e:20:bd:
        3e:f6:88:23:8e:6d:c2:a6:50:0e:56:57:27:a5:66:96:82:10:
        e8:a0:f9:e0:84:65:7c:c5:84:74:da:25:04:41:42:46:97:fd:
        b1:f8:cf:9b:97:76:51:42:d7:93:d0:52:bd:05:ec:71:fa:d7:
        ba:67:e9:55:75:3a:9d:73:ed:d9:37:c6:5d:69:c0:d1:ad:89:
        18:8a:61:0e:9a:c9:22:c0:0c:1c:a3:3a:07:56:34:05:9b:8d:
        58:08:c0:a2:cd:f9:09:2c:9e:28:f9:5c:34:f7:22:04:f7:d3:
        7a:b4:87:13:70:d2:08:68:db:63:d9:a2:b2:65:dd:7c:c9:69:
        bd:9a:31:ee:51:ba:7a:f5:50:f5:36:d7:db:13:c3:e3:2b:e3:
        52:46:03:cf:8c:34:88:dd:2c:48:6b:c3:06:f1:15:a4:15:0d:
        51:a4:63:9d:d8:09:70:2f:00:f7:9a:00:df:c0:87:eb:9a:5c:
        ff:d8:7a:b4:13:ef:c6:54:4a:dd:48:46:22:25:63:73:a2:7d:
        aa:0d:69:49:c1:73:88:18:b8:81:4b:9a:17:a2:c6:03:69:fc:
        67:48:8d:1a:0f:e0:38:bd:51:14:b8:79:dd:17:33:bc:21:6f:
        17:79:8d:89
-----BEGIN CERTIFICATE-----
MIIDtzCCAp+gAwIBAgICEAAwDQYJKoZIhvcNAQELBQAwgYExCzAJBgNVBAYTAlVT
MRAwDgYDVQQIDAdHZW9yZ2lhMRAwDgYDVQQHDAdBdGxhbnRhMRgwFgYDVQQKDA9T
dHVkZW50IFBLSSBMYWIxFjAUBgNVBAsMDUN5YmVyc2VjdXJpdHkxHDAaBgNVBAMM
E0VyaWMgU2xlZGdlIFJvb3QgQ0EwHhcNMjYwNDI2MjE1MTMzWhcNMjcwNDI2MjE1
MTMzWjBsMQswCQYDVQQGEwJVUzEQMA4GA1UECAwHR2VvcmdpYTEYMBYGA1UECgwP
U3R1ZGVudCBQS0kgTGFiMRYwFAYDVQQLDA1DeWJlcnNlY3VyaXR5MRkwFwYDVQQD
DBBQS0lMYWJTZXJ2ZXIuY29tMIIBIjANBgkqhkiG9w0BAQEFAAOCAQ8AMIIBCgKC
AQEAkNmz2eUYqJgo/mTCnz7w0EDtfXrUaXjo9dYLVGh7IcvNCvBH76sFbixJNfRC
7hsTYalFwypekycrZJJ7dWmPNuaXyfjFoECZnvPZoqpqLddmneC8A/O+OFLn1rt+
sJAXNiyfIdf804PuljJ2LugXC+24v17roSSKU9dFVLRV9f0zyE4h/JnvLzhEX73T
gFLnhvwRH+JDfashzcG1CprthkP1975fCe8VXzPksT+JNHf1ziNAUX1quUOL174v
kOzyI9ddmrOs+6NwpzaFwGH16M6r2AF5Ajo84wZ7y9je8OKFZDjzsXrCCEnudb8c
9ASR29/06/P98DtJze0BaSNWXQIDAQABo00wSzAJBgNVHRMEAjAAMB0GA1UdDgQW
BBTJjtoktMIjWjapa7DS8bwQGxcybDAfBgNVHSMEGDAWgBSd/GaNQCSPh4e+AFY3
hdJcguvYijANBgkqhkiG9w0BAQsFAAOCAQEAHHEFoaXMW9MYo/hbQ18fHiC9PvaI
I45twqZQDlZXJ6VmloIQ6KD54IRlfMWEdNolBEFCRpf9sfjPm5d2UULXk9BSvQXs
cfrXumfpVXU6nXPt2TfGXWnA0a2JGIphDprJIsAMHKM6B1Y0BZuNWAjAos35CSye
KPlcNPciBPfTerSHE3DSCGjbY9mismXdfMlpvZox7lG6evVQ9TbX2xPD4yvjUkYD
z4w0iN0sSGvDBvEVpBUNUaRjndgJcC8A95oA38CH65pc/9h6tBPvxlRK3UhGIiVj
c6J9qg1pScFziBi4gUuaF6LGA2n8Z0iNGg/gOL1RFLh53RczvCFvF3mNiQ==
-----END CERTIFICATE-----
